target datalayout = "e-m:e-p270:32:32-p271:32:32-p272:64:64-i64:64-i128:128-f80:128-n8:16:32:64-S128"
target triple = "x86_64-unknown-linux-gnu"

%"struct.ODDLParser::DataArrayList" = type { i64, ptr, ptr, ptr, i64 }
%"class.ODDLParser::Value" = type { i32, i64, ptr, ptr }

@.str.5 = private unnamed_addr constant [3 x i8] c", \00", align 1
@.str.14 = private unnamed_addr constant [3 x i8] c"{ \00", align 1
@.str.15 = private unnamed_addr constant [3 x i8] c" }\00", align 1

; Function Attrs: mustprogress uwtable
define hidden noundef zeroext i1 @_ZN10ODDLParser13OpenDDLExport15writeValueArrayEPNS_13DataArrayListERNSt7__cxx1112basic_stringIcSt11char_traitsIcESaIcEEE(ptr noundef nonnull align 8 dereferenceable(8) %this, ptr noundef %al, ptr noundef nonnull align 8 dereferenceable(32) %statement) #0 align 2 {
entry:
  %retval = alloca i1, align 1
  %this.addr = alloca ptr, align 8
  %al.addr = alloca ptr, align 8
  %statement.addr = alloca ptr, align 8
  %nextDataArrayList = alloca ptr, align 8
  %nextValue = alloca ptr, align 8
  %idx = alloca i64, align 8
  store ptr %this, ptr %this.addr, align 8
  store ptr %al, ptr %al.addr, align 8
  store ptr %statement, ptr %statement.addr, align 8
  %this1 = load ptr, ptr %this.addr, align 8
  %0 = load ptr, ptr %al.addr, align 8
  %cmp = icmp eq ptr null, %0
  br i1 %cmp, label %if.then, label %if.end

if.then:                                          ; preds = %entry
  store i1 false, ptr %retval, align 1
  br label %return

if.end:                                           ; preds = %entry
  %1 = load ptr, ptr %al.addr, align 8
  %m_numItems = getelementptr inbounds %"struct.ODDLParser::DataArrayList", ptr %1, i32 0, i32 0
  %2 = load i64, ptr %m_numItems, align 8
  %cmp2 = icmp eq i64 0, %2
  br i1 %cmp2, label %if.then3, label %if.end4

if.then3:                                         ; preds = %if.end
  store i1 true, ptr %retval, align 1
  br label %return

if.end4:                                          ; preds = %if.end
  %3 = load ptr, ptr %al.addr, align 8
  store ptr %3, ptr %nextDataArrayList, align 8
  %4 = load ptr, ptr %nextDataArrayList, align 8
  %m_dataList = getelementptr inbounds %"struct.ODDLParser::DataArrayList", ptr %4, i32 0, i32 1
  %5 = load ptr, ptr %m_dataList, align 8
  store ptr %5, ptr %nextValue, align 8
  br label %while.cond

while.cond:                                       ; preds = %if.end18, %if.end4
  %6 = load ptr, ptr %nextDataArrayList, align 8
  %cmp5 = icmp ne ptr null, %6
  br i1 %cmp5, label %while.body, label %while.end20

while.body:                                       ; preds = %while.cond
  %7 = load ptr, ptr %nextDataArrayList, align 8
  %cmp6 = icmp ne ptr null, %7
  br i1 %cmp6, label %if.then7, label %if.end18

if.then7:                                         ; preds = %while.body
  %8 = load ptr, ptr %statement.addr, align 8
  %call = call noundef nonnull align 8 dereferenceable(32) ptr @_ZNSt7__cxx1112basic_stringIcSt11char_traitsIcESaIcEEpLEPKc(ptr noundef nonnull align 8 dereferenceable(32) %8, ptr noundef @.str.14)
  %9 = load ptr, ptr %nextDataArrayList, align 8
  %m_dataList8 = getelementptr inbounds %"struct.ODDLParser::DataArrayList", ptr %9, i32 0, i32 1
  %10 = load ptr, ptr %m_dataList8, align 8
  store ptr %10, ptr %nextValue, align 8
  store i64 0, ptr %idx, align 8
  br label %while.cond9

while.cond9:                                      ; preds = %if.end15, %if.then7
  %11 = load ptr, ptr %nextValue, align 8
  %cmp10 = icmp ne ptr null, %11
  br i1 %cmp10, label %while.body11, label %while.end

while.body11:                                     ; preds = %while.cond9
  %12 = load i64, ptr %idx, align 8
  %cmp12 = icmp ugt i64 %12, 0
  br i1 %cmp12, label %if.then13, label %if.end15

if.then13:                                        ; preds = %while.body11
  %13 = load ptr, ptr %statement.addr, align 8
  %call14 = call noundef nonnull align 8 dereferenceable(32) ptr @_ZNSt7__cxx1112basic_stringIcSt11char_traitsIcESaIcEEpLEPKc(ptr noundef nonnull align 8 dereferenceable(32) %13, ptr noundef @.str.5)
  br label %if.end15

if.end15:                                         ; preds = %if.then13, %while.body11
  %14 = load ptr, ptr %nextValue, align 8
  %15 = load ptr, ptr %statement.addr, align 8
  %call16 = call noundef zeroext i1 @_ZN10ODDLParser13OpenDDLExport10writeValueEPNS_5ValueERNSt7__cxx1112basic_stringIcSt11char_traitsIcESaIcEEE(ptr noundef nonnull align 8 dereferenceable(8) %this1, ptr noundef %14, ptr noundef nonnull align 8 dereferenceable(32) %15)
  %16 = load ptr, ptr %nextValue, align 8
  %m_next = getelementptr inbounds %"class.ODDLParser::Value", ptr %16, i32 0, i32 3
  %17 = load ptr, ptr %m_next, align 8
  store ptr %17, ptr %nextValue, align 8
  %18 = load i64, ptr %idx, align 8
  %inc = add i64 %18, 1
  store i64 %inc, ptr %idx, align 8
  br label %while.cond9, !llvm.loop !7

while.end:                                        ; preds = %while.cond9
  %19 = load ptr, ptr %statement.addr, align 8
  %call17 = call noundef nonnull align 8 dereferenceable(32) ptr @_ZNSt7__cxx1112basic_stringIcSt11char_traitsIcESaIcEEpLEPKc(ptr noundef nonnull align 8 dereferenceable(32) %19, ptr noundef @.str.15)
  br label %if.end18

if.end18:                                         ; preds = %while.end, %while.body
  %20 = load ptr, ptr %nextDataArrayList, align 8
  %m_next19 = getelementptr inbounds %"struct.ODDLParser::DataArrayList", ptr %20, i32 0, i32 2
  %21 = load ptr, ptr %m_next19, align 8
  store ptr %21, ptr %nextDataArrayList, align 8
  br label %while.cond, !llvm.loop !8

while.end20:                                      ; preds = %while.cond
  store i1 true, ptr %retval, align 1
  br label %return

return:                                           ; preds = %while.end20, %if.then3, %if.then
  %22 = load i1, ptr %retval, align 1
  ret i1 %22
}