; Function Attrs: mustprogress uwtable
define hidden noundef zeroext i1 @_ZN10ODDLParser13OpenDDLExport15writeValueArrayEPNS_13DataArrayListERNSt7__cxx1112basic_stringIcSt11char_traitsIcESaIcEEE(ptr noundef nonnull readnone align 8 captures(none) dereferenceable(8) %this, ptr noundef readonly %al, ptr noundef nonnull align 8 dereferenceable(32) %statement) local_unnamed_addr #0 align 2 {
entry:
  %cmp = icmp ne ptr %al, null
  br i1 %cmp, label %if.end, label %return

if.end:                                           ; preds = %entry
  %0 = load i64, ptr %al, align 8
  %cmp2 = icmp eq i64 %0, 0
  br i1 %cmp2, label %return, label %if.then7

if.then7:                                         ; preds = %if.end, %while.end
  %nextDataArrayList.017 = phi ptr [ %1, %while.end ], [ %al, %if.end ]
  %call = tail call noundef nonnull align 8 dereferenceable(32) ptr @_ZNSt7__cxx1112basic_stringIcSt11char_traitsIcESaIcEEpLEPKc(ptr noundef nonnull align 8 dereferenceable(32) %statement, ptr noundef nonnull @.str.14)
  %m_dataList8 = getelementptr inbounds nuw i8, ptr %nextDataArrayList.017, i64 8
  %nextValue.013 = load ptr, ptr %m_dataList8, align 8
  %cmp10.not14 = icmp eq ptr %nextValue.013, null
  br i1 %cmp10.not14, label %while.end, label %while.body11

while.body11:                                     ; preds = %if.then7, %if.end15
  %nextValue.016 = phi ptr [ %nextValue.0, %if.end15 ], [ %nextValue.013, %if.then7 ]
  %idx.015 = phi i64 [ %inc, %if.end15 ], [ 0, %if.then7 ]
  %cmp12.not = icmp eq i64 %idx.015, 0
  br i1 %cmp12.not, label %if.end15, label %if.then13

if.then13:                                        ; preds = %while.body11
  %call14 = tail call noundef nonnull align 8 dereferenceable(32) ptr @_ZNSt7__cxx1112basic_stringIcSt11char_traitsIcESaIcEEpLEPKc(ptr noundef nonnull align 8 dereferenceable(32) %statement, ptr noundef nonnull @.str.5)
  br label %if.end15

if.end15:                                         ; preds = %if.then13, %while.body11
  %call16 = tail call noundef zeroext i1 @_ZN10ODDLParser13OpenDDLExport10writeValueEPNS_5ValueERNSt7__cxx1112basic_stringIcSt11char_traitsIcESaIcEEE(ptr nonnull align 8 poison, ptr noundef nonnull %nextValue.016, ptr noundef nonnull align 8 dereferenceable(32) %statement)
  %m_next = getelementptr inbounds nuw i8, ptr %nextValue.016, i64 24
  %inc = add i64 %idx.015, 1
  %nextValue.0 = load ptr, ptr %m_next, align 8
  %cmp10.not = icmp eq ptr %nextValue.0, null
  br i1 %cmp10.not, label %while.end, label %while.body11, !llvm.loop !6

while.end:                                        ; preds = %if.end15, %if.then7
  %call17 = tail call noundef nonnull align 8 dereferenceable(32) ptr @_ZNSt7__cxx1112basic_stringIcSt11char_traitsIcESaIcEEpLEPKc(ptr noundef nonnull align 8 dereferenceable(32) %statement, ptr noundef nonnull @.str.15)
  %m_next19 = getelementptr inbounds nuw i8, ptr %nextDataArrayList.017, i64 16
  %1 = load ptr, ptr %m_next19, align 8
  %cmp5.not = icmp eq ptr %1, null
  br i1 %cmp5.not, label %return, label %if.then7, !llvm.loop !7

return:                                           ; preds = %while.end, %if.end, %entry
  ret i1 %cmp
}